target datalayout = "e-m:e-p270:32:32-p271:32:32-p272:64:64-i64:64-i128:128-f80:128-n8:16:32:64-S128"
target triple = "x86_64-pc-linux-gnu"

%struct._value_string_ext = type { ptr, i32, i32, ptr, ptr }
%struct._packet_info = type { ptr, ptr, i32, i32, %struct.nstime_t, %struct.nstime_t, %struct.nstime_t, i8, ptr, ptr, ptr, ptr, %struct._address, %struct._address, %struct._address, %struct._address, %struct._address, %struct._address, i32, ptr, i8, [3 x i8], %struct.anon, i32, i32, i32, i32, ptr, i8, ptr, ptr, i16, i16, i32, i32, i16, i32, i32, ptr, ptr, ptr, i8, i8, i16, i16, i16, i32, i16, i16, ptr, ptr, ptr, ptr, ptr, i32, i32 }
%struct.nstime_t = type { i64, i32 }
%struct._address = type { i32, i32, ptr, ptr }
%struct.anon = type { i8, [3 x i8] }
%struct._proto_node = type { ptr, ptr, ptr, ptr, ptr, ptr, ptr }
%struct.field_info = type { ptr, i32, i32, i32, i32, i32, i32, ptr, ptr, ptr, i32, i32 }

@hf_nfs3_status = internal global i32 0, align 4
@names_nfs3_status_ext = internal global %struct._value_string_ext { ptr @_try_val_to_str_ext_init, i32 0, i32 29, ptr @names_nfs_nfsstat3, ptr @.str.1577 }, align 8
@hf_nfs_status = hidden global i32 0, align 4
@.str.2241 = private unnamed_addr constant [18 x i8] c"Unknown error: %u\00", align 1
@.str.2242 = private unnamed_addr constant [11 x i8] c" Error: %s\00", align 1
@.str.2269 = private unnamed_addr constant [15 x i8] c", RENAME Reply\00", align 1
@.str.2270 = private unnamed_addr constant [26 x i8] c", RENAME Reply  Error: %s\00", align 1
@.str.2344 = private unnamed_addr constant [12 x i8] c"fromdir_wcc\00", align 1
@.str.2345 = private unnamed_addr constant [10 x i8] c"todir_wcc\00", align 1

; Function Attrs: inlinehint nounwind null_pointer_is_valid sspstrong uwtable
define internal void @proto_item_set_hidden(ptr noundef %0) #8 {
  %2 = alloca ptr, align 8
  store ptr %0, ptr %2, align 8
  %3 = load ptr, ptr %2, align 8
  %4 = icmp ne ptr %3, null
  br i1 %4, label %5, label %24

5:                                                ; preds = %1
  br label %6

6:                                                ; preds = %5
  %7 = load ptr, ptr %2, align 8
  %8 = getelementptr inbounds nuw %struct._proto_node, ptr %7, i32 0, i32 5
  %9 = load ptr, ptr %8, align 8
  %10 = icmp ne ptr %9, null
  br i1 %10, label %11, label %22

11:                                               ; preds = %6
  %12 = load ptr, ptr %2, align 8
  %13 = getelementptr inbounds nuw %struct._proto_node, ptr %12, i32 0, i32 5
  %14 = load ptr, ptr %13, align 8
  %15 = getelementptr inbounds nuw %struct.field_info, ptr %14, i32 0, i32 6
  %16 = load i32, ptr %15, align 4
  %17 = or i32 %16, 1
  %18 = load ptr, ptr %2, align 8
  %19 = getelementptr inbounds nuw %struct._proto_node, ptr %18, i32 0, i32 5
  %20 = load ptr, ptr %19, align 8
  %21 = getelementptr inbounds nuw %struct.field_info, ptr %20, i32 0, i32 6
  store i32 %17, ptr %21, align 4
  br label %22

22:                                               ; preds = %11, %6
  br label %23

23:                                               ; preds = %22
  br label %24

24:                                               ; preds = %23, %1
  ret void
}

; Function Attrs: null_pointer_is_valid sspstrong uwtable
define internal i32 @dissect_nfs3_status(ptr noundef %0, i32 noundef %1, ptr noundef %2, ptr noundef %3) #0 {
  %5 = alloca ptr, align 8
  %6 = alloca i32, align 4
  %7 = alloca ptr, align 8
  %8 = alloca ptr, align 8
  %9 = alloca i32, align 4
  %10 = alloca ptr, align 8
  store ptr %0, ptr %5, align 8
  store i32 %1, ptr %6, align 4
  store ptr %2, ptr %7, align 8
  store ptr %3, ptr %8, align 8
  call void @llvm.lifetime.start.p0(i64 4, ptr %9) #16
  %11 = load ptr, ptr %5, align 8
  %12 = load i32, ptr %6, align 4
  %13 = add i32 %12, 0
  %14 = call i32 @tvb_get_ntohl(ptr noundef %11, i32 noundef %13)
  store i32 %14, ptr %9, align 4
  %15 = load ptr, ptr %7, align 8
  %16 = icmp ne ptr %15, null
  br i1 %16, label %17, label %33

17:                                               ; preds = %4
  call void @llvm.lifetime.start.p0(i64 8, ptr %10) #16
  %18 = load ptr, ptr %7, align 8
  %19 = load i32, ptr @hf_nfs3_status, align 4
  %20 = load ptr, ptr %5, align 8
  %21 = load i32, ptr %6, align 4
  %22 = add i32 %21, 0
  %23 = load i32, ptr %9, align 4
  %24 = call ptr @proto_tree_add_uint(ptr noundef %18, i32 noundef %19, ptr noundef %20, i32 noundef %22, i32 noundef 4, i32 noundef %23)
  %25 = load ptr, ptr %7, align 8
  %26 = load i32, ptr @hf_nfs_status, align 4
  %27 = load ptr, ptr %5, align 8
  %28 = load i32, ptr %6, align 4
  %29 = add i32 %28, 0
  %30 = load i32, ptr %9, align 4
  %31 = call ptr @proto_tree_add_uint(ptr noundef %25, i32 noundef %26, ptr noundef %27, i32 noundef %29, i32 noundef 4, i32 noundef %30)
  store ptr %31, ptr %10, align 8
  %32 = load ptr, ptr %10, align 8
  call void @proto_item_set_hidden(ptr noundef %32)
  call void @llvm.lifetime.end.p0(i64 8, ptr %10) #16
  br label %33

33:                                               ; preds = %17, %4
  %34 = load i32, ptr %6, align 4
  %35 = add i32 %34, 4
  store i32 %35, ptr %6, align 4
  %36 = load i32, ptr %9, align 4
  %37 = load ptr, ptr %8, align 8
  store i32 %36, ptr %37, align 4
  %38 = load i32, ptr %6, align 4
  call void @llvm.lifetime.end.p0(i64 4, ptr %9) #16
  ret i32 %38
}

; Function Attrs: null_pointer_is_valid sspstrong uwtable
define internal i32 @dissect_nfs3_rename_reply(ptr noundef %0, ptr noundef %1, ptr noundef %2, ptr noundef %3) #0 {
  %5 = alloca ptr, align 8
  %6 = alloca ptr, align 8
  %7 = alloca ptr, align 8
  %8 = alloca ptr, align 8
  %9 = alloca i32, align 4
  %10 = alloca ptr, align 8
  %11 = alloca i32, align 4
  store ptr %0, ptr %5, align 8
  store ptr %1, ptr %6, align 8
  store ptr %2, ptr %7, align 8
  store ptr %3, ptr %8, align 8
  call void @llvm.lifetime.start.p0(i64 4, ptr %9) #16
  call void @llvm.lifetime.start.p0(i64 8, ptr %10) #16
  call void @llvm.lifetime.start.p0(i64 4, ptr %11) #16
  store i32 0, ptr %11, align 4
  %12 = load ptr, ptr %5, align 8
  %13 = load i32, ptr %11, align 4
  %14 = load ptr, ptr %7, align 8
  %15 = call i32 @dissect_nfs3_status(ptr noundef %12, i32 noundef %13, ptr noundef %14, ptr noundef %9)
  store i32 %15, ptr %11, align 4
  %16 = load i32, ptr %9, align 4
  switch i32 %16, label %29 [
    i32 0, label %17
  ]

17:                                               ; preds = %4
  %18 = load ptr, ptr %5, align 8
  %19 = load i32, ptr %11, align 4
  %20 = load ptr, ptr %6, align 8
  %21 = load ptr, ptr %7, align 8
  %22 = call i32 @dissect_wcc_data(ptr noundef %18, i32 noundef %19, ptr noundef %20, ptr noundef %21, ptr noundef @.str.2344)
  store i32 %22, ptr %11, align 4
  %23 = load ptr, ptr %5, align 8
  %24 = load i32, ptr %11, align 4
  %25 = load ptr, ptr %6, align 8
  %26 = load ptr, ptr %7, align 8
  %27 = call i32 @dissect_wcc_data(ptr noundef %23, i32 noundef %24, ptr noundef %25, ptr noundef %26, ptr noundef @.str.2345)
  store i32 %27, ptr %11, align 4
  %28 = load ptr, ptr %7, align 8
  call void (ptr, ptr, ...) @proto_item_append_text(ptr noundef %28, ptr noundef @.str.2269)
  br label %48

29:                                               ; preds = %4
  %30 = load ptr, ptr %5, align 8
  %31 = load i32, ptr %11, align 4
  %32 = load ptr, ptr %6, align 8
  %33 = load ptr, ptr %7, align 8
  %34 = call i32 @dissect_wcc_data(ptr noundef %30, i32 noundef %31, ptr noundef %32, ptr noundef %33, ptr noundef @.str.2344)
  store i32 %34, ptr %11, align 4
  %35 = load ptr, ptr %5, align 8
  %36 = load i32, ptr %11, align 4
  %37 = load ptr, ptr %6, align 8
  %38 = load ptr, ptr %7, align 8
  %39 = call i32 @dissect_wcc_data(ptr noundef %35, i32 noundef %36, ptr noundef %37, ptr noundef %38, ptr noundef @.str.2345)
  store i32 %39, ptr %11, align 4
  %40 = load i32, ptr %9, align 4
  %41 = call ptr @val_to_str_ext(i32 noundef %40, ptr noundef @names_nfs3_status_ext, ptr noundef @.str.2241)
  store ptr %41, ptr %10, align 8
  %42 = load ptr, ptr %6, align 8
  %43 = getelementptr inbounds nuw %struct._packet_info, ptr %42, i32 0, i32 1
  %44 = load ptr, ptr %43, align 8
  %45 = load ptr, ptr %10, align 8
  call void (ptr, i32, ptr, ...) @col_append_fstr(ptr noundef %44, i32 noundef 25, ptr noundef @.str.2242, ptr noundef %45)
  %46 = load ptr, ptr %7, align 8
  %47 = load ptr, ptr %10, align 8
  call void (ptr, ptr, ...) @proto_item_append_text(ptr noundef %46, ptr noundef @.str.2270, ptr noundef %47)
  br label %48

48:                                               ; preds = %29, %17
  %49 = load i32, ptr %11, align 4
  call void @llvm.lifetime.end.p0(i64 4, ptr %11) #16
  call void @llvm.lifetime.end.p0(i64 8, ptr %10) #16
  call void @llvm.lifetime.end.p0(i64 4, ptr %9) #16
  ret i32 %49
}